target datalayout = "e-m:e-p270:32:32-p271:32:32-p272:64:64-i64:64-i128:128-f80:128-n8:16:32:64-S128"
target triple = "x86_64-pc-linux-gnu"

; Function Attrs: nounwind uwtable
define internal void @get_block_row16(ptr noundef %0, i32 noundef %1, i32 noundef %2, i32 noundef %3, i32 noundef %4, ptr noundef %5) #1 {
  %7 = alloca ptr, align 8
  %8 = alloca i32, align 4
  %9 = alloca i32, align 4
  %10 = alloca i32, align 4
  %11 = alloca i32, align 4
  %12 = alloca ptr, align 8
  %13 = alloca ptr, align 8
  %14 = alloca i32, align 4
  store ptr %0, ptr %7, align 8, !tbaa !91
  store i32 %1, ptr %8, align 4, !tbaa !43
  store i32 %2, ptr %9, align 4, !tbaa !43
  store i32 %3, ptr %10, align 4, !tbaa !43
  store i32 %4, ptr %11, align 4, !tbaa !43
  store ptr %5, ptr %12, align 8, !tbaa !138
  call void @llvm.lifetime.start.p0(i64 8, ptr %13) #12
  %15 = load ptr, ptr %7, align 8, !tbaa !91
  %16 = load i32, ptr %9, align 4, !tbaa !43
  %17 = load i32, ptr %8, align 4, !tbaa !43
  %18 = mul nsw i32 %16, %17
  %19 = sdiv i32 %18, 2
  %20 = sext i32 %19 to i64
  %21 = getelementptr inbounds i16, ptr %15, i64 %20
  %22 = load i32, ptr %10, align 4, !tbaa !43
  %23 = sext i32 %22 to i64
  %24 = getelementptr inbounds i16, ptr %21, i64 %23
  store ptr %24, ptr %13, align 8, !tbaa !213
  call void @llvm.lifetime.start.p0(i64 4, ptr %14) #12
  store i32 0, ptr %14, align 4, !tbaa !43
  br label %25

25:                                               ; preds = %41, %6
  %26 = load i32, ptr %14, align 4, !tbaa !43
  %27 = load i32, ptr %11, align 4, !tbaa !43
  %28 = icmp slt i32 %26, %27
  br i1 %28, label %30, label %29

29:                                               ; preds = %25
  call void @llvm.lifetime.end.p0(i64 4, ptr %14) #12
  br label %44

30:                                               ; preds = %25
  %31 = load ptr, ptr %13, align 8, !tbaa !213
  %32 = load i32, ptr %14, align 4, !tbaa !43
  %33 = sext i32 %32 to i64
  %34 = getelementptr inbounds i16, ptr %31, i64 %33
  %35 = load i16, ptr %34, align 2, !tbaa !216
  %36 = uitofp i16 %35 to float
  %37 = load ptr, ptr %12, align 8, !tbaa !138
  %38 = load i32, ptr %14, align 4, !tbaa !43
  %39 = sext i32 %38 to i64
  %40 = getelementptr inbounds float, ptr %37, i64 %39
  store float %36, ptr %40, align 4, !tbaa !126
  br label %41

41:                                               ; preds = %30
  %42 = load i32, ptr %14, align 4, !tbaa !43
  %43 = add nsw i32 %42, 1
  store i32 %43, ptr %14, align 4, !tbaa !43
  br label %25, !llvm.loop !222

44:                                               ; preds = %29
  call void @llvm.lifetime.end.p0(i64 8, ptr %13) #12
  ret void
}