; Function Attrs: nofree norecurse nosync nounwind memory(argmem: readwrite) uwtable
define internal void @get_block_row16(ptr noundef readonly captures(none) %0, i32 noundef %1, i32 noundef %2, i32 noundef %3, i32 noundef %4, ptr noundef writeonly captures(none) %5) #13 {
  %7 = mul nsw i32 %2, %1
  %8 = sdiv i32 %7, 2
  %9 = sext i32 %8 to i64
  %10 = getelementptr inbounds i16, ptr %0, i64 %9
  %11 = sext i32 %3 to i64
  %12 = getelementptr inbounds i16, ptr %10, i64 %11
  %13 = icmp sgt i32 %4, 0
  br i1 %13, label %.lr.ph.preheader, label %._crit_edge

.lr.ph.preheader:                                 ; preds = %6
  %wide.trip.count = zext nneg i32 %4 to i64
  br label %.lr.ph

._crit_edge:                                      ; preds = %.lr.ph, %6
  ret void

.lr.ph:                                           ; preds = %.lr.ph.preheader, %.lr.ph
  %indvars.iv = phi i64 [ 0, %.lr.ph.preheader ], [ %indvars.iv.next, %.lr.ph ]
  %14 = getelementptr inbounds nuw i16, ptr %12, i64 %indvars.iv
  %15 = load i16, ptr %14, align 2, !tbaa !190
  %16 = uitofp i16 %15 to float
  %17 = getelementptr inbounds nuw float, ptr %5, i64 %indvars.iv
  store float %16, ptr %17, align 4, !tbaa !120
  %indvars.iv.next = add nuw nsw i64 %indvars.iv, 1
  %exitcond.not = icmp eq i64 %indvars.iv.next, %wide.trip.count
  br i1 %exitcond.not, label %._crit_edge, label %.lr.ph, !llvm.loop !196
}